target datalayout = "e-m:e-p270:32:32-p271:32:32-p272:64:64-i64:64-i128:128-f80:128-n8:16:32:64-S128"
target triple = "x86_64-pc-linux-gnu"

@hf_gryphon_setfilt_padding = internal global i32 0, align 4
@hf_gryphon_ioctl = internal global i32 0, align 4

; Function Attrs: null_pointer_is_valid sspstrong uwtable
define internal i32 @cmd_ioctl(ptr noundef %0, ptr noundef %1, i32 noundef %2, ptr noundef %3, i32 noundef %4) #0 {
  %6 = alloca ptr, align 8
  %7 = alloca ptr, align 8
  %8 = alloca i32, align 4
  %9 = alloca ptr, align 8
  %10 = alloca i32, align 4
  %11 = alloca i32, align 4
  %12 = alloca i32, align 4
  store ptr %0, ptr %6, align 8
  store ptr %1, ptr %7, align 8
  store i32 %2, ptr %8, align 4
  store ptr %3, ptr %9, align 8
  store i32 %4, ptr %10, align 4
  call void @llvm.lifetime.start.p0(i64 4, ptr %11) #7
  call void @llvm.lifetime.start.p0(i64 4, ptr %12) #7
  %13 = load ptr, ptr %6, align 8
  %14 = load i32, ptr %8, align 4
  %15 = call i32 @tvb_reported_length_remaining(ptr noundef %13, i32 noundef %14)
  store i32 %15, ptr %11, align 4
  %16 = load ptr, ptr %9, align 8
  %17 = load i32, ptr @hf_gryphon_ioctl, align 4
  %18 = load ptr, ptr %6, align 8
  %19 = load i32, ptr %8, align 4
  %20 = call ptr @proto_tree_add_item(ptr noundef %16, i32 noundef %17, ptr noundef %18, i32 noundef %19, i32 noundef 4, i32 noundef 0)
  %21 = load i32, ptr %8, align 4
  %22 = add i32 %21, 4
  store i32 %22, ptr %8, align 4
  %23 = load i32, ptr %11, align 4
  %24 = sub i32 %23, 4
  store i32 %24, ptr %11, align 4
  %25 = load i32, ptr %11, align 4
  %26 = icmp sgt i32 %25, 0
  br i1 %26, label %27, label %35

27:                                               ; preds = %5
  %28 = load ptr, ptr %6, align 8
  %29 = load ptr, ptr %7, align 8
  %30 = load i32, ptr %8, align 4
  %31 = load ptr, ptr %9, align 8
  %32 = load i32, ptr %10, align 4
  %33 = load i32, ptr %11, align 4
  %34 = call i32 @cmd_ioctl_details(ptr noundef %28, ptr noundef %29, i32 noundef %30, ptr noundef %31, i32 noundef %32, i32 noundef %33)
  store i32 %34, ptr %8, align 4
  br label %35

35:                                               ; preds = %27, %5
  %36 = load ptr, ptr %6, align 8
  %37 = load i32, ptr %8, align 4
  %38 = call i32 @tvb_reported_length_remaining(ptr noundef %36, i32 noundef %37)
  store i32 %38, ptr %12, align 4
  %39 = load i32, ptr %12, align 4
  %40 = icmp sgt i32 %39, 0
  br i1 %40, label %41, label %51

41:                                               ; preds = %35
  %42 = load ptr, ptr %9, align 8
  %43 = load i32, ptr @hf_gryphon_setfilt_padding, align 4
  %44 = load ptr, ptr %6, align 8
  %45 = load i32, ptr %8, align 4
  %46 = load i32, ptr %12, align 4
  %47 = call ptr @proto_tree_add_item(ptr noundef %42, i32 noundef %43, ptr noundef %44, i32 noundef %45, i32 noundef %46, i32 noundef 0)
  %48 = load i32, ptr %12, align 4
  %49 = load i32, ptr %8, align 4
  %50 = add i32 %49, %48
  store i32 %50, ptr %8, align 4
  br label %51

51:                                               ; preds = %41, %35
  %52 = load i32, ptr %8, align 4
  call void @llvm.lifetime.end.p0(i64 4, ptr %12) #7
  call void @llvm.lifetime.end.p0(i64 4, ptr %11) #7
  ret i32 %52
}