; Function Attrs: null_pointer_is_valid sspstrong uwtable
define internal fastcc i32 @cmd_ioctl(ptr noundef %0, ptr noundef readonly captures(none) %1, ptr noundef %2, i32 noundef %3) unnamed_addr #0 {
  %5 = tail call i32 @tvb_reported_length_remaining(ptr noundef %0, i32 noundef 12)
  %6 = load i32, ptr @hf_gryphon_ioctl, align 4
  %7 = tail call ptr @proto_tree_add_item(ptr noundef %2, i32 noundef %6, ptr noundef %0, i32 noundef 12, i32 noundef 4, i32 noundef 0)
  %8 = add i32 %5, -4
  %9 = icmp sgt i32 %8, 0
  br i1 %9, label %10, label %12

10:                                               ; preds = %4
  %11 = tail call fastcc i32 @cmd_ioctl_details(ptr noundef %0, ptr noundef %1, ptr noundef %2, i32 noundef %3, i32 noundef %8)
  br label %12

12:                                               ; preds = %10, %4
  %.0 = phi i32 [ %11, %10 ], [ 16, %4 ]
  %13 = tail call i32 @tvb_reported_length_remaining(ptr noundef %0, i32 noundef %.0)
  %14 = icmp sgt i32 %13, 0
  br i1 %14, label %15, label %19

15:                                               ; preds = %12
  %16 = load i32, ptr @hf_gryphon_setfilt_padding, align 4
  %17 = tail call ptr @proto_tree_add_item(ptr noundef %2, i32 noundef %16, ptr noundef %0, i32 noundef %.0, i32 noundef %13, i32 noundef 0)
  %18 = add i32 %13, %.0
  br label %19

19:                                               ; preds = %15, %12
  %.1 = phi i32 [ %18, %15 ], [ %.0, %12 ]
  ret i32 %.1
}